target datalayout = "e-m:e-p270:32:32-p271:32:32-p272:64:64-i64:64-i128:128-f80:128-n8:16:32:64-S128"
target triple = "x86_64-pc-linux-gnu"

%struct.WFILE = type { ptr, i32, i32, ptr, ptr, ptr, ptr, ptr, i32, i32 }

; Function Attrs: nounwind uwtable
define internal void @w_flush(ptr noundef %0) #0 {
  %2 = alloca ptr, align 8
  store ptr %0, ptr %2, align 8, !tbaa !23
  %3 = load ptr, ptr %2, align 8, !tbaa !23
  %4 = getelementptr inbounds nuw %struct.WFILE, ptr %3, i32 0, i32 6
  %5 = load ptr, ptr %4, align 8, !tbaa !18
  %6 = load ptr, ptr %2, align 8, !tbaa !23
  %7 = getelementptr inbounds nuw %struct.WFILE, ptr %6, i32 0, i32 4
  %8 = load ptr, ptr %7, align 8, !tbaa !19
  %9 = load ptr, ptr %2, align 8, !tbaa !23
  %10 = getelementptr inbounds nuw %struct.WFILE, ptr %9, i32 0, i32 6
  %11 = load ptr, ptr %10, align 8, !tbaa !18
  %12 = ptrtoint ptr %8 to i64
  %13 = ptrtoint ptr %11 to i64
  %14 = sub i64 %12, %13
  %15 = load ptr, ptr %2, align 8, !tbaa !23
  %16 = getelementptr inbounds nuw %struct.WFILE, ptr %15, i32 0, i32 0
  %17 = load ptr, ptr %16, align 8, !tbaa !13
  %18 = call i64 @fwrite(ptr noundef %5, i64 noundef 1, i64 noundef %14, ptr noundef %17)
  %19 = load ptr, ptr %2, align 8, !tbaa !23
  %20 = getelementptr inbounds nuw %struct.WFILE, ptr %19, i32 0, i32 6
  %21 = load ptr, ptr %20, align 8, !tbaa !18
  %22 = load ptr, ptr %2, align 8, !tbaa !23
  %23 = getelementptr inbounds nuw %struct.WFILE, ptr %22, i32 0, i32 4
  store ptr %21, ptr %23, align 8, !tbaa !19
  ret void
}

; Function Attrs: nounwind uwtable
define dso_local void @PyMarshal_WriteLongToFile(i64 noundef %0, ptr noundef %1, i32 noundef %2) #0 {
  %4 = alloca i64, align 8
  %5 = alloca ptr, align 8
  %6 = alloca i32, align 4
  %7 = alloca [4 x i8], align 1
  %8 = alloca %struct.WFILE, align 8
  store i64 %0, ptr %4, align 8, !tbaa !4
  store ptr %1, ptr %5, align 8, !tbaa !8
  store i32 %2, ptr %6, align 4, !tbaa !11
  call void @llvm.lifetime.start.p0(i64 4, ptr %7) #11
  call void @llvm.lifetime.start.p0(i64 64, ptr %8) #11
  call void @llvm.memset.p0.i64(ptr align 8 %8, i8 0, i64 64, i1 false)
  %9 = load ptr, ptr %5, align 8, !tbaa !8
  %10 = getelementptr inbounds nuw %struct.WFILE, ptr %8, i32 0, i32 0
  store ptr %9, ptr %10, align 8, !tbaa !13
  %11 = getelementptr inbounds [4 x i8], ptr %7, i64 0, i64 0
  %12 = getelementptr inbounds nuw %struct.WFILE, ptr %8, i32 0, i32 6
  store ptr %11, ptr %12, align 8, !tbaa !18
  %13 = getelementptr inbounds nuw %struct.WFILE, ptr %8, i32 0, i32 4
  store ptr %11, ptr %13, align 8, !tbaa !19
  %14 = getelementptr inbounds nuw %struct.WFILE, ptr %8, i32 0, i32 4
  %15 = load ptr, ptr %14, align 8, !tbaa !19
  %16 = getelementptr i8, ptr %15, i64 4
  %17 = getelementptr inbounds nuw %struct.WFILE, ptr %8, i32 0, i32 5
  store ptr %16, ptr %17, align 8, !tbaa !20
  %18 = getelementptr inbounds nuw %struct.WFILE, ptr %8, i32 0, i32 1
  store i32 0, ptr %18, align 8, !tbaa !21
  %19 = load i32, ptr %6, align 4, !tbaa !11
  %20 = getelementptr inbounds nuw %struct.WFILE, ptr %8, i32 0, i32 8
  store i32 %19, ptr %20, align 8, !tbaa !22
  %21 = load i64, ptr %4, align 8, !tbaa !4
  call void @w_long(i64 noundef %21, ptr noundef %8)
  call void @w_flush(ptr noundef %8)
  call void @llvm.lifetime.end.p0(i64 64, ptr %8) #11
  call void @llvm.lifetime.end.p0(i64 4, ptr %7) #11
  ret void
}