; Function Attrs: nounwind uwtable
define dso_local void @PyMarshal_WriteLongToFile(i64 noundef %0, ptr noundef %1, i32 noundef %2) local_unnamed_addr #0 {
  %4 = alloca [4 x i8], align 1
  %5 = alloca %struct.WFILE, align 8
  call void @llvm.lifetime.start.p0(i64 4, ptr nonnull %4) #11
  call void @llvm.lifetime.start.p0(i64 64, ptr nonnull %5) #11
  %6 = getelementptr inbounds nuw i8, ptr %5, i64 8
  call void @llvm.memset.p0.i64(ptr noundef nonnull align 8 dereferenceable(64) %6, i8 0, i64 56, i1 false)
  store ptr %1, ptr %5, align 8, !tbaa !4
  %7 = getelementptr inbounds nuw i8, ptr %5, i64 40
  store ptr %4, ptr %7, align 8, !tbaa !14
  %8 = getelementptr inbounds nuw i8, ptr %5, i64 24
  store ptr %4, ptr %8, align 8, !tbaa !15
  %9 = getelementptr inbounds nuw i8, ptr %4, i64 4
  %10 = getelementptr inbounds nuw i8, ptr %5, i64 32
  store ptr %9, ptr %10, align 8, !tbaa !16
  %11 = getelementptr inbounds nuw i8, ptr %5, i64 56
  store i32 %2, ptr %11, align 8, !tbaa !17
  call fastcc void @w_long(i64 noundef %0, ptr noundef %5)
  %12 = load ptr, ptr %7, align 8, !tbaa !14
  %13 = load ptr, ptr %8, align 8, !tbaa !15
  %14 = ptrtoint ptr %13 to i64
  %15 = ptrtoint ptr %12 to i64
  %16 = sub i64 %14, %15
  %17 = load ptr, ptr %5, align 8, !tbaa !4
  %18 = call i64 @fwrite(ptr noundef %12, i64 noundef 1, i64 noundef %16, ptr noundef %17)
  call void @llvm.lifetime.end.p0(i64 64, ptr nonnull %5) #11
  call void @llvm.lifetime.end.p0(i64 4, ptr nonnull %4) #11
  ret void
}